target datalayout = "e-m:e-p270:32:32-p271:32:32-p272:64:64-i64:64-i128:128-f80:128-n8:16:32:64-S128"
target triple = "x86_64-pc-linux-gnu"

%struct.pmix_class_t = type { ptr, ptr, ptr, ptr, i32, i32, ptr, ptr, i64 }
%struct.pmix_object_t = type { %union.pthread_mutex_t, ptr, i32, %struct.pmix_tma }
%union.pthread_mutex_t = type { %struct.__pthread_mutex_s }
%struct.__pthread_mutex_s = type { i32, i32, i32, i32, i32, i16, i16, %struct.__pthread_internal_list }
%struct.__pthread_internal_list = type { ptr, ptr }
%struct.pmix_tma = type { ptr, ptr, ptr, ptr, ptr, ptr, ptr, ptr }

@.str.30 = private unnamed_addr constant [21 x i8] c"pthread_mutex_lock()\00", align 1

; Function Attrs: inlinehint nounwind uwtable
define internal void @pmix_tma_free(ptr noundef %0, ptr noundef %1) #3 {
  %3 = alloca ptr, align 8
  %4 = alloca ptr, align 8
  store ptr %0, ptr %3, align 8, !tbaa !55
  store ptr %1, ptr %4, align 8, !tbaa !42
  %5 = load ptr, ptr %3, align 8, !tbaa !55
  %6 = icmp ne ptr null, %5
  br i1 %6, label %7, label %13

7:                                                ; preds = %2
  %8 = load ptr, ptr %3, align 8, !tbaa !55
  %9 = getelementptr inbounds nuw %struct.pmix_tma, ptr %8, i32 0, i32 5
  %10 = load ptr, ptr %9, align 8, !tbaa !94
  %11 = load ptr, ptr %3, align 8, !tbaa !55
  %12 = load ptr, ptr %4, align 8, !tbaa !42
  call void %10(ptr noundef %11, ptr noundef %12)
  br label %15

13:                                               ; preds = %2
  %14 = load ptr, ptr %4, align 8, !tbaa !42
  call void @free(ptr noundef %14) #13
  br label %15

15:                                               ; preds = %13, %7
  ret void
}

; Function Attrs: inlinehint nounwind uwtable
define internal void @pmix_obj_run_destructors(ptr noundef %0) #3 {
  %2 = alloca ptr, align 8
  %3 = alloca ptr, align 8
  store ptr %0, ptr %2, align 8, !tbaa !53
  call void @llvm.lifetime.start.p0(i64 8, ptr %3) #13
  %4 = load ptr, ptr %2, align 8, !tbaa !53
  %5 = getelementptr inbounds nuw %struct.pmix_object_t, ptr %4, i32 0, i32 1
  %6 = load ptr, ptr %5, align 8, !tbaa !17
  %7 = getelementptr inbounds nuw %struct.pmix_class_t, ptr %6, i32 0, i32 7
  %8 = load ptr, ptr %7, align 8, !tbaa !92
  store ptr %8, ptr %3, align 8, !tbaa !42
  br label %9

9:                                                ; preds = %13, %1
  %10 = load ptr, ptr %3, align 8, !tbaa !42
  %11 = load ptr, ptr %10, align 8, !tbaa !42
  %12 = icmp ne ptr null, %11
  br i1 %12, label %13, label %19

13:                                               ; preds = %9
  %14 = load ptr, ptr %3, align 8, !tbaa !42
  %15 = load ptr, ptr %14, align 8, !tbaa !42
  %16 = load ptr, ptr %2, align 8, !tbaa !53
  call void %15(ptr noundef %16)
  %17 = load ptr, ptr %3, align 8, !tbaa !42
  %18 = getelementptr inbounds nuw ptr, ptr %17, i32 1
  store ptr %18, ptr %3, align 8, !tbaa !42
  br label %9, !llvm.loop !93

19:                                               ; preds = %9
  call void @llvm.lifetime.end.p0(i64 8, ptr %3) #13
  ret void
}

; Function Attrs: alwaysinline nounwind uwtable
define internal i32 @pmix_obj_update(ptr noundef %0, i32 noundef %1) #5 {
  %3 = alloca ptr, align 8
  %4 = alloca i32, align 4
  %5 = alloca i32, align 4
  store ptr %0, ptr %3, align 8, !tbaa !53
  store i32 %1, ptr %4, align 4, !tbaa !9
  call void @llvm.lifetime.start.p0(i64 4, ptr %5) #13
  %6 = load ptr, ptr %3, align 8, !tbaa !53
  %7 = getelementptr inbounds nuw %struct.pmix_object_t, ptr %6, i32 0, i32 0
  %8 = call i32 @pthread_mutex_lock(ptr noundef %7) #13
  store i32 %8, ptr %5, align 4, !tbaa !9
  %9 = load i32, ptr %5, align 4, !tbaa !9
  %10 = icmp eq i32 %9, 35
  br i1 %10, label %11, label %14

11:                                               ; preds = %2
  %12 = load i32, ptr %5, align 4, !tbaa !9
  %13 = call ptr @__errno_location() #16
  store i32 %12, ptr %13, align 4, !tbaa !9
  call void @perror(ptr noundef @.str.30)
  call void @abort() #17
  unreachable

14:                                               ; preds = %2
  %15 = load i32, ptr %4, align 4, !tbaa !9
  %16 = load ptr, ptr %3, align 8, !tbaa !53
  %17 = getelementptr inbounds nuw %struct.pmix_object_t, ptr %16, i32 0, i32 2
  %18 = load i32, ptr %17, align 8, !tbaa !20
  %19 = add nsw i32 %18, %15
  store i32 %19, ptr %17, align 8, !tbaa !20
  store i32 %19, ptr %5, align 4, !tbaa !9
  %20 = load ptr, ptr %3, align 8, !tbaa !53
  %21 = getelementptr inbounds nuw %struct.pmix_object_t, ptr %20, i32 0, i32 0
  %22 = call i32 @pthread_mutex_unlock(ptr noundef %21) #13
  %23 = load i32, ptr %5, align 4, !tbaa !9
  call void @llvm.lifetime.end.p0(i64 4, ptr %5) #13
  ret i32 %23
}

; Function Attrs: nounwind uwtable
define internal void @_local_relcb(ptr noundef %0) #0 {
  %2 = alloca ptr, align 8
  %3 = alloca ptr, align 8
  %4 = alloca ptr, align 8
  store ptr %0, ptr %2, align 8, !tbaa !42
  call void @llvm.lifetime.start.p0(i64 8, ptr %3) #13
  %5 = load ptr, ptr %2, align 8, !tbaa !42
  store ptr %5, ptr %3, align 8, !tbaa !42
  br label %6

6:                                                ; preds = %1
  call void @llvm.lifetime.start.p0(i64 8, ptr %4) #13
  %7 = load ptr, ptr %3, align 8, !tbaa !42
  store ptr %7, ptr %4, align 8, !tbaa !53
  %8 = load ptr, ptr %4, align 8, !tbaa !53
  %9 = call i32 @pmix_obj_update(ptr noundef %8, i32 noundef -1)
  %10 = icmp eq i32 0, %9
  br i1 %10, label %11, label %25

11:                                               ; preds = %6
  %12 = load ptr, ptr %4, align 8, !tbaa !53
  call void @pmix_obj_run_destructors(ptr noundef %12)
  %13 = load ptr, ptr %4, align 8, !tbaa !53
  %14 = getelementptr inbounds nuw %struct.pmix_object_t, ptr %13, i32 0, i32 3
  %15 = getelementptr inbounds nuw %struct.pmix_tma, ptr %14, i32 0, i32 5
  %16 = load ptr, ptr %15, align 8, !tbaa !62
  %17 = icmp ne ptr null, %16
  br i1 %17, label %18, label %22

18:                                               ; preds = %11
  %19 = load ptr, ptr %4, align 8, !tbaa !53
  %20 = getelementptr inbounds nuw %struct.pmix_object_t, ptr %19, i32 0, i32 3
  %21 = load ptr, ptr %3, align 8, !tbaa !42
  call void @pmix_tma_free(ptr noundef %20, ptr noundef %21)
  br label %24

22:                                               ; preds = %11
  %23 = load ptr, ptr %3, align 8, !tbaa !42
  call void @free(ptr noundef %23) #13
  br label %24

24:                                               ; preds = %22, %18
  store ptr null, ptr %3, align 8, !tbaa !42
  br label %25

25:                                               ; preds = %24, %6
  call void @llvm.lifetime.end.p0(i64 8, ptr %4) #13
  br label %26

26:                                               ; preds = %25
  br label %27

27:                                               ; preds = %26
  call void @llvm.lifetime.end.p0(i64 8, ptr %3) #13
  ret void
}